target datalayout = "e-m:e-p270:32:32-p271:32:32-p272:64:64-i64:64-i128:128-f80:128-n8:16:32:64-S128"
target triple = "x86_64-pc-linux-gnu"

%"class.std::__cxx11::basic_string" = type { %"struct.std::__cxx11::basic_string<char>::_Alloc_hider", i64, %union.anon }
%"struct.std::__cxx11::basic_string<char>::_Alloc_hider" = type { ptr }
%union.anon = type { i64, [8 x i8] }
%struct.PJconsts = type { ptr, ptr, ptr, ptr, ptr, ptr, ptr, ptr, ptr, ptr, ptr, ptr, i32, ptr, ptr, ptr, ptr, ptr, ptr, ptr, ptr, double, double, double, double, double, double, double, double, double, double, double, double, double, double, double, double, double, double, double, double, double, double, i32, i32, i32, i32, i32, i32, i32, i32, i32, i32, i32, ptr, ptr, ptr, ptr, ptr, ptr, double, double, double, double, double, double, double, double, double, double, double, i32, [7 x double], i32, ptr, ptr, double, double, i32, [4 x i8], %"class.std::shared_ptr", i8, double, i8, %"class.std::__cxx11::basic_string", %"class.std::__cxx11::basic_string", %"class.std::__cxx11::basic_string", i8, %"class.std::vector.267", i32, %"class.std::vector.272", i32, i8, i8, i8, ptr }
%"class.std::shared_ptr" = type { %"class.std::__shared_ptr" }
%"class.std::__shared_ptr" = type { ptr, %"class.std::__shared_count" }
%"class.std::__shared_count" = type { ptr }
%"class.std::vector.267" = type { %"struct.std::_Vector_base.268" }
%"struct.std::_Vector_base.268" = type { %"struct.std::_Vector_base<osgeo::proj::operation::GridDescription, std::allocator<osgeo::proj::operation::GridDescription>>::_Vector_impl" }
%"struct.std::_Vector_base<osgeo::proj::operation::GridDescription, std::allocator<osgeo::proj::operation::GridDescription>>::_Vector_impl" = type { %"struct.std::_Vector_base<osgeo::proj::operation::GridDescription, std::allocator<osgeo::proj::operation::GridDescription>>::_Vector_impl_data" }
%"struct.std::_Vector_base<osgeo::proj::operation::GridDescription, std::allocator<osgeo::proj::operation::GridDescription>>::_Vector_impl_data" = type { ptr, ptr, ptr }
%"class.std::vector.272" = type { %"struct.std::_Vector_base.273" }
%"struct.std::_Vector_base.273" = type { %"struct.std::_Vector_base<PJCoordOperation, std::allocator<PJCoordOperation>>::_Vector_impl" }
%"struct.std::_Vector_base<PJCoordOperation, std::allocator<PJCoordOperation>>::_Vector_impl" = type { %"struct.std::_Vector_base<PJCoordOperation, std::allocator<PJCoordOperation>>::_Vector_impl_data" }
%"struct.std::_Vector_base<PJCoordOperation, std::allocator<PJCoordOperation>>::_Vector_impl_data" = type { ptr, ptr, ptr }
%struct.PJ_LP = type { double, double }

@.str.94 = private unnamed_addr constant [32 x i8] c"proj_vgrid_value: (%f, %f) = %f\00", align 1

; Function Attrs: mustprogress uwtable
define hidden noundef double @_ZN5osgeo4proj14pj_vgrid_valueEP8PJconstsRKSt6vectorISt10unique_ptrINS0_20VerticalShiftGridSetESt14default_deleteIS5_EESaIS8_EE5PJ_LPd(ptr noundef %0, ptr noundef nonnull align 8 dereferenceable(24) %1, double %2, double %3, double noundef %4) #1 {
  %6 = alloca %struct.PJ_LP, align 8
  %7 = alloca ptr, align 8
  %8 = alloca ptr, align 8
  %9 = alloca double, align 8
  %10 = alloca double, align 8
  %11 = getelementptr inbounds nuw { double, double }, ptr %6, i32 0, i32 0
  store double %2, ptr %11, align 8
  %12 = getelementptr inbounds nuw { double, double }, ptr %6, i32 0, i32 1
  store double %3, ptr %12, align 8
  store ptr %0, ptr %7, align 8, !tbaa !477
  store ptr %1, ptr %8, align 8, !tbaa !528
  store double %4, ptr %9, align 8, !tbaa !39
  call void @llvm.lifetime.start.p0(i64 8, ptr %10) #6
  %13 = load ptr, ptr %7, align 8, !tbaa !477
  %14 = getelementptr inbounds nuw %struct.PJconsts, ptr %13, i32 0, i32 0
  %15 = load ptr, ptr %14, align 8, !tbaa !479
  %16 = load ptr, ptr %8, align 8, !tbaa !528
  %17 = load double, ptr %9, align 8, !tbaa !39
  %18 = call noundef double @_ZN5osgeo4projL16read_vgrid_valueEP6pj_ctxRKSt6vectorISt10unique_ptrINS0_20VerticalShiftGridSetESt14default_deleteIS5_EESaIS8_EERK5PJ_LPd(ptr noundef %15, ptr noundef nonnull align 8 dereferenceable(24) %16, ptr noundef nonnull align 8 dereferenceable(16) %6, double noundef %17)
  store double %18, ptr %10, align 8, !tbaa !39
  %19 = load ptr, ptr %7, align 8, !tbaa !477
  %20 = getelementptr inbounds nuw %struct.PJconsts, ptr %19, i32 0, i32 0
  %21 = load ptr, ptr %20, align 8, !tbaa !479
  %22 = call noundef zeroext i1 @_Z13pj_log_activeP6pj_ctxi(ptr noundef %21, i32 noundef 3)
  br i1 %22, label %23, label %32

23:                                               ; preds = %5
  %24 = load ptr, ptr %7, align 8, !tbaa !477
  %25 = getelementptr inbounds nuw %struct.PJ_LP, ptr %6, i32 0, i32 0
  %26 = load double, ptr %25, align 8, !tbaa !519
  %27 = fmul double %26, 0x404CA5DC1A63C1F8
  %28 = getelementptr inbounds nuw %struct.PJ_LP, ptr %6, i32 0, i32 1
  %29 = load double, ptr %28, align 8, !tbaa !521
  %30 = fmul double %29, 0x404CA5DC1A63C1F8
  %31 = load double, ptr %10, align 8, !tbaa !39
  call void (ptr, ptr, ...) @_Z14proj_log_traceP8PJconstsPKcz(ptr noundef %24, ptr noundef @.str.94, double noundef %27, double noundef %30, double noundef %31)
  br label %32

32:                                               ; preds = %23, %5
  %33 = load double, ptr %10, align 8, !tbaa !39
  call void @llvm.lifetime.end.p0(i64 8, ptr %10) #6
  ret double %33
}