; Function Attrs: mustprogress uwtable
define hidden noundef double @_ZN5osgeo4proj14pj_vgrid_valueEP8PJconstsRKSt6vectorISt10unique_ptrINS0_20VerticalShiftGridSetESt14default_deleteIS5_EESaIS8_EE5PJ_LPd(ptr noundef %0, ptr noundef nonnull readonly align 8 captures(none) dereferenceable(24) %1, double %2, double %3, double noundef %4) local_unnamed_addr #2 {
  %6 = alloca %struct.PJ_LP, align 8
  store double %2, ptr %6, align 8
  %7 = getelementptr inbounds nuw i8, ptr %6, i64 8
  store double %3, ptr %7, align 8
  %8 = load ptr, ptr %0, align 8, !tbaa !440
  %9 = call fastcc noundef double @_ZN5osgeo4projL16read_vgrid_valueEP6pj_ctxRKSt6vectorISt10unique_ptrINS0_20VerticalShiftGridSetESt14default_deleteIS5_EESaIS8_EERK5PJ_LPd(ptr noundef %8, ptr noundef nonnull align 8 dereferenceable(24) %1, ptr noundef nonnull align 8 dereferenceable(16) %6, double noundef %4)
  %10 = load ptr, ptr %0, align 8, !tbaa !440
  %11 = tail call noundef zeroext i1 @_Z13pj_log_activeP6pj_ctxi(ptr noundef %10, i32 noundef 3)
  br i1 %11, label %12, label %15

12:                                               ; preds = %5
  %13 = fmul double %2, 0x404CA5DC1A63C1F8
  %14 = fmul double %3, 0x404CA5DC1A63C1F8
  tail call void (ptr, ptr, ...) @_Z14proj_log_traceP8PJconstsPKcz(ptr noundef nonnull %0, ptr noundef nonnull @.str.94, double noundef %13, double noundef %14, double noundef %9)
  br label %15

15:                                               ; preds = %12, %5
  ret double %9
}